; Function Attrs: nounwind uwtable
define internal i32 @bio_core_gets(ptr noundef %0, ptr noundef %1, i32 noundef %2) #0 {
  %4 = load ptr, ptr %0, align 8, !tbaa !20
  %5 = tail call ptr @ossl_lib_ctx_get_data(ptr noundef %4, i32 noundef 17) #3
  %6 = icmp eq ptr %5, null
  br i1 %6, label %14, label %7

7:                                                ; preds = %3
  %8 = getelementptr inbounds nuw i8, ptr %5, i64 16
  %9 = load ptr, ptr %8, align 8, !tbaa !14
  %10 = icmp eq ptr %9, null
  br i1 %10, label %14, label %11

11:                                               ; preds = %7
  %12 = tail call ptr @BIO_get_data(ptr noundef nonnull %0) #3
  %13 = tail call i32 %9(ptr noundef %12, ptr noundef %1, i32 noundef %2) #3
  br label %14

14:                                               ; preds = %3, %7, %11
  %.0 = phi i32 [ %13, %11 ], [ -1, %7 ], [ -1, %3 ]
  ret i32 %.0
}